target datalayout = "e-m:e-p270:32:32-p271:32:32-p272:64:64-i64:64-i128:128-f80:128-n8:16:32:64-S128"
target triple = "x86_64-pc-linux-gnu"

; Function Attrs: nounwind uwtable
define hidden void @KeccakP1600_ExtractBytesInLane(ptr noundef %0, i32 noundef %1, ptr noundef %2, i32 noundef %3, i32 noundef %4) #0 {
  %6 = alloca ptr, align 8
  %7 = alloca i32, align 4
  %8 = alloca ptr, align 8
  %9 = alloca i32, align 4
  %10 = alloca i32, align 4
  %11 = alloca i64, align 8
  %12 = alloca [1 x i64], align 8
  store ptr %0, ptr %6, align 8, !tbaa !4
  store i32 %1, ptr %7, align 4, !tbaa !10
  store ptr %2, ptr %8, align 8, !tbaa !12
  store i32 %3, ptr %9, align 4, !tbaa !10
  store i32 %4, ptr %10, align 4, !tbaa !10
  call void @llvm.lifetime.start.p0(i64 8, ptr %11) #4
  %13 = load ptr, ptr %6, align 8, !tbaa !4
  %14 = load i32, ptr %7, align 4, !tbaa !10
  %15 = zext i32 %14 to i64
  %16 = getelementptr inbounds nuw i64, ptr %13, i64 %15
  %17 = load i64, ptr %16, align 8, !tbaa !8
  store i64 %17, ptr %11, align 8, !tbaa !8
  %18 = load i32, ptr %7, align 4, !tbaa !10
  %19 = icmp eq i32 %18, 1
  br i1 %19, label %35, label %20

20:                                               ; preds = %5
  %21 = load i32, ptr %7, align 4, !tbaa !10
  %22 = icmp eq i32 %21, 2
  br i1 %22, label %35, label %23

23:                                               ; preds = %20
  %24 = load i32, ptr %7, align 4, !tbaa !10
  %25 = icmp eq i32 %24, 8
  br i1 %25, label %35, label %26

26:                                               ; preds = %23
  %27 = load i32, ptr %7, align 4, !tbaa !10
  %28 = icmp eq i32 %27, 12
  br i1 %28, label %35, label %29

29:                                               ; preds = %26
  %30 = load i32, ptr %7, align 4, !tbaa !10
  %31 = icmp eq i32 %30, 17
  br i1 %31, label %35, label %32

32:                                               ; preds = %29
  %33 = load i32, ptr %7, align 4, !tbaa !10
  %34 = icmp eq i32 %33, 20
  br i1 %34, label %35, label %38

35:                                               ; preds = %32, %29, %26, %23, %20, %5
  %36 = load i64, ptr %11, align 8, !tbaa !8
  %37 = xor i64 %36, -1
  store i64 %37, ptr %11, align 8, !tbaa !8
  br label %38

38:                                               ; preds = %35, %32
  call void @llvm.lifetime.start.p0(i64 8, ptr %12) #4
  %39 = load i64, ptr %11, align 8, !tbaa !8
  %40 = getelementptr inbounds [1 x i64], ptr %12, i64 0, i64 0
  store i64 %39, ptr %40, align 8, !tbaa !8
  %41 = load ptr, ptr %8, align 8, !tbaa !12
  %42 = getelementptr inbounds [1 x i64], ptr %12, i64 0, i64 0
  %43 = load i32, ptr %9, align 4, !tbaa !10
  %44 = zext i32 %43 to i64
  %45 = getelementptr inbounds nuw i8, ptr %42, i64 %44
  %46 = load i32, ptr %10, align 4, !tbaa !10
  %47 = zext i32 %46 to i64
  call void @llvm.memcpy.p0.p0.i64(ptr align 1 %41, ptr align 1 %45, i64 %47, i1 false)
  call void @llvm.lifetime.end.p0(i64 8, ptr %12) #4
  call void @llvm.lifetime.end.p0(i64 8, ptr %11) #4
  ret void
}