; Function Attrs: mustprogress nofree norecurse nosync nounwind willreturn memory(argmem: readwrite) uwtable
define hidden void @KeccakP1600_ExtractBytesInLane(ptr noundef readonly captures(none) %0, i32 noundef %1, ptr noundef writeonly captures(none) %2, i32 noundef %3, i32 noundef %4) local_unnamed_addr #2 {
  %6 = alloca [1 x i64], align 8
  %7 = zext i32 %1 to i64
  %8 = getelementptr inbounds nuw i64, ptr %0, i64 %7
  %9 = load i64, ptr %8, align 8, !tbaa !4
  switch i32 %1, label %12 [
    i32 20, label %10
    i32 17, label %10
    i32 12, label %10
    i32 8, label %10
    i32 2, label %10
    i32 1, label %10
  ]

10:                                               ; preds = %5, %5, %5, %5, %5, %5
  %11 = xor i64 %9, -1
  br label %12

12:                                               ; preds = %5, %10
  %.0 = phi i64 [ %11, %10 ], [ %9, %5 ]
  call void @llvm.lifetime.start.p0(i64 8, ptr nonnull %6) #8
  store i64 %.0, ptr %6, align 8, !tbaa !4
  %13 = zext i32 %3 to i64
  %14 = getelementptr inbounds nuw i8, ptr %6, i64 %13
  %15 = zext i32 %4 to i64
  call void @llvm.memcpy.p0.p0.i64(ptr align 1 %2, ptr nonnull align 1 %14, i64 %15, i1 false)
  call void @llvm.lifetime.end.p0(i64 8, ptr nonnull %6) #8
  ret void
}